(dp1
S'dataInterferometric'
p2
S'NOTVALID'
p3
sS'multiSite'
p4
g3
sS'multicomp'
p5
S'NEUTRAL'
p6
sS'lowAltitude'
p7
S'POSITIVE'
p8
sS'scattering'
p9
g6
sS'spectralIndex'
p10
S'NEGATIVE'
p11
sS'obsLog'
p12
g8
sS'flux'
p13
g8
sS'broadband'
p14
g11
sS'multiBeam'
p15
g3
sS'sysNoise'
p16
g8
sS'polarization'
p17
g3
sS'pulsewidth'
p18
g8
sS'TAB'
p19
g8
sS'electronics'
p20
g8
sS'dispersionRelation'
p21
g6
sS'snrDMfrac'
p22
S'UNKNOWN'
p23
sS'compDMfrac'
p24
g3
sS'interferometric'
p25
g3
sS'gain'
p26
g8
sS'dataVoltages'
p27
g3
sS'dataMultiBeam'
p28
g3
sS'dmSpace'
p29
g8
sS'lowSNRsearch'
p30
g8
sS'dataMultiSite'
p31
g3
sS'highResStruct'
p32
S'CRITICAL'
p33
sS'SNR'
p34
g8
sS'correctFeed'
p35
g3
sS'dataTAB'
p36
g6
sS'repeats'
p37
g6
sS'scintillation'
p38
g6
sS'bandpass'
p39
g8
sS'dataSingleBeam'
p40
g3
s.