(dp1
S'dataInterferometric'
p2
S'NOTVALID'
p3
sS'multiSite'
p4
g3
sS'multicomp'
p5
S'POSITIVE'
p6
sS'lowAltitude'
p7
g6
sS'scattering'
p8
S'NEUTRAL'
p9
sS'spectralIndex'
p10
g9
sS'obsLog'
p11
g6
sS'flux'
p12
g6
sS'broadband'
p13
g6
sS'multiBeam'
p14
g6
sS'sysNoise'
p15
S'NEGATIVE'
p16
sS'polarization'
p17
g3
sS'pulsewidth'
p18
g6
sS'TAB'
p19
g3
sS'electronics'
p20
g16
sS'dispersionRelation'
p21
g9
sS'snrDMfrac'
p22
g6
sS'compDMfrac'
p23
g3
sS'interferometric'
p24
g3
sS'gain'
p25
g16
sS'dataVoltages'
p26
g3
sS'dataMultiBeam'
p27
g9
sS'dmSpace'
p28
g16
sS'lowSNRsearch'
p29
g9
sS'dataMultiSite'
p30
g3
sS'highResStruct'
p31
g9
sS'SNR'
p32
g6
sS'correctFeed'
p33
S'CRITICAL'
p34
sS'dataTAB'
p35
g3
sS'repeats'
p36
g9
sS'scintillation'
p37
g9
sS'bandpass'
p38
g16
sS'dataSingleBeam'
p39
g3
s.