(dp1
S'dataInterferometric'
p2
S'UNKNOWN'
p3
sS'multiSite'
p4
g3
sS'multicomp'
p5
g3
sS'lowAltitude'
p6
g3
sS'scattering'
p7
g3
sS'spectralIndex'
p8
g3
sS'obsLog'
p9
g3
sS'flux'
p10
g3
sS'broadband'
p11
g3
sS'multiBeam'
p12
g3
sS'sysNoise'
p13
g3
sS'polarization'
p14
g3
sS'pulsewidth'
p15
g3
sS'TAB'
p16
g3
sS'electronics'
p17
g3
sS'dispersionRelation'
p18
g3
sS'snrDMfrac'
p19
g3
sS'compDMfrac'
p20
g3
sS'interferometric'
p21
g3
sS'gain'
p22
g3
sS'dataVoltages'
p23
g3
sS'dataMultiBeam'
p24
g3
sS'dmSpace'
p25
g3
sS'lowSNRsearch'
p26
g3
sS'dataMultiSite'
p27
g3
sS'highResStruct'
p28
g3
sS'SNR'
p29
g3
sS'correctFeed'
p30
g3
sS'dataTAB'
p31
g3
sS'repeats'
p32
g3
sS'scintillation'
p33
g3
sS'bandpass'
p34
g3
sS'dataSingleBeam'
p35
g3
s.