(dp1
S'dataInterferometric'
p2
S'NOTVALID'
p3
sS'multiSite'
p4
S'POSITIVE'
p5
sS'multicomp'
p6
g5
sS'lowAltitude'
p7
g5
sS'scattering'
p8
g5
sS'spectralIndex'
p9
g5
sS'obsLog'
p10
g5
sS'flux'
p11
g5
sS'broadband'
p12
g5
sS'multiBeam'
p13
g5
sS'sysNoise'
p14
g5
sS'polarization'
p15
g5
sS'pulsewidth'
p16
g5
sS'TAB'
p17
S'UNKNOWN'
p18
sS'electronics'
p19
g5
sS'dispersionRelation'
p20
g5
sS'snrDMfrac'
p21
S'CRITICAL'
p22
sS'compDMfrac'
p23
g3
sS'interferometric'
p24
g18
sS'gain'
p25
g5
sS'dataVoltages'
p26
g3
sS'dataMultiBeam'
p27
S'NEUTRAL'
p28
sS'dmSpace'
p29
g5
sS'lowSNRsearch'
p30
g5
sS'dataMultiSite'
p31
g3
sS'highResStruct'
p32
g28
sS'SNR'
p33
g5
sS'correctFeed'
p34
g5
sS'dataTAB'
p35
g3
sS'repeats'
p36
g5
sS'scintillation'
p37
g5
sS'bandpass'
p38
g5
sS'dataSingleBeam'
p39
g3
s.