(dp1
S'dataInterferometric'
p2
S'NOTVALID'
p3
sS'multiSite'
p4
g3
sS'multicomp'
p5
S'NEUTRAL'
p6
sS'lowAltitude'
p7
g6
sS'scattering'
p8
g3
sS'spectralIndex'
p9
S'NEGATIVE'
p10
sS'obsLog'
p11
S'UNKNOWN'
p12
sS'flux'
p13
g6
sS'broadband'
p14
g10
sS'multiBeam'
p15
S'POSITIVE'
p16
sS'sysNoise'
p17
g12
sS'polarization'
p18
g3
sS'pulsewidth'
p19
g6
sS'TAB'
p20
g3
sS'electronics'
p21
g12
sS'dispersionRelation'
p22
g6
sS'snrDMfrac'
p23
g3
sS'compDMfrac'
p24
g16
sS'interferometric'
p25
g3
sS'gain'
p26
g12
sS'dataVoltages'
p27
g3
sS'dataMultiBeam'
p28
g6
sS'dmSpace'
p29
g16
sS'lowSNRsearch'
p30
g12
sS'dataMultiSite'
p31
g3
sS'highResStruct'
p32
g6
sS'SNR'
p33
g6
sS'correctFeed'
p34
g12
sS'dataTAB'
p35
g3
sS'repeats'
p36
g12
sS'scintillation'
p37
g3
sS'bandpass'
p38
g12
sS'dataSingleBeam'
p39
g3
s.