(dp1
S'dataInterferometric'
p2
S'NOTVALID'
p3
sS'multiSite'
p4
g3
sS'multicomp'
p5
S'POSITIVE'
p6
sS'lowAltitude'
p7
g3
sS'scattering'
p8
S'NEUTRAL'
p9
sS'spectralIndex'
p10
g6
sS'obsLog'
p11
g6
sS'flux'
p12
g6
sS'broadband'
p13
g9
sS'multiBeam'
p14
S'CRITICAL'
p15
sS'sysNoise'
p16
S'UNKNOWN'
p17
sS'polarization'
p18
g9
sS'pulsewidth'
p19
g6
sS'TAB'
p20
g3
sS'electronics'
p21
g6
sS'dispersionRelation'
p22
g17
sS'snrDMfrac'
p23
g6
sS'compDMfrac'
p24
g3
sS'interferometric'
p25
g3
sS'gain'
p26
g6
sS'dataVoltages'
p27
g3
sS'dataMultiBeam'
p28
g17
sS'dmSpace'
p29
g6
sS'lowSNRsearch'
p30
g17
sS'dataMultiSite'
p31
g3
sS'highResStruct'
p32
g9
sS'SNR'
p33
g6
sS'correctFeed'
p34
g6
sS'dataTAB'
p35
g3
sS'repeats'
p36
g15
sS'scintillation'
p37
g6
sS'bandpass'
p38
g17
sS'dataSingleBeam'
p39
g3
s.