(dp1
S'dataInterferometric'
p2
S'NOTVALID'
p3
sS'multiSite'
p4
S'CRITICAL'
p5
sS'multicomp'
p6
S'POSITIVE'
p7
sS'lowAltitude'
p8
S'UNKNOWN'
p9
sS'scattering'
p10
S'NEUTRAL'
p11
sS'spectralIndex'
p12
S'NEGATIVE'
p13
sS'obsLog'
p14
g9
sS'flux'
p15
g13
sS'broadband'
p16
g13
sS'multiBeam'
p17
g7
sS'sysNoise'
p18
g13
sS'polarization'
p19
g11
sS'pulsewidth'
p20
g11
sS'TAB'
p21
g7
sS'electronics'
p22
g9
sS'dispersionRelation'
p23
g11
sS'snrDMfrac'
p24
g7
sS'compDMfrac'
p25
g3
sS'interferometric'
p26
g5
sS'gain'
p27
g9
sS'dataVoltages'
p28
g3
sS'dataMultiBeam'
p29
g11
sS'dmSpace'
p30
g13
sS'lowSNRsearch'
p31
g13
sS'dataMultiSite'
p32
g3
sS'highResStruct'
p33
g11
sS'SNR'
p34
g13
sS'correctFeed'
p35
g9
sS'dataTAB'
p36
g3
sS'repeats'
p37
g11
sS'scintillation'
p38
g11
sS'bandpass'
p39
g9
sS'dataSingleBeam'
p40
g3
s.