(dp1
S'dataInterferometric'
p2
S'NOTVALID'
p3
sS'multiSite'
p4
g3
sS'multicomp'
p5
S'NEUTRAL'
p6
sS'lowAltitude'
p7
g3
sS'scattering'
p8
g6
sS'spectralIndex'
p9
g6
sS'obsLog'
p10
S'POSITIVE'
p11
sS'flux'
p12
g11
sS'broadband'
p13
g6
sS'multiBeam'
p14
g3
sS'sysNoise'
p15
g11
sS'polarization'
p16
g6
sS'pulsewidth'
p17
g11
sS'TAB'
p18
g3
sS'electronics'
p19
g11
sS'dispersionRelation'
p20
S'CRITICAL'
p21
sS'snrDMfrac'
p22
g3
sS'compDMfrac'
p23
g11
sS'interferometric'
p24
g3
sS'gain'
p25
g11
sS'dataVoltages'
p26
g3
sS'dataMultiBeam'
p27
g3
sS'dmSpace'
p28
g11
sS'lowSNRsearch'
p29
g6
sS'dataMultiSite'
p30
g3
sS'highResStruct'
p31
S'NEGATIVE'
p32
sS'SNR'
p33
g11
sS'correctFeed'
p34
g11
sS'dataTAB'
p35
g3
sS'repeats'
p36
g21
sS'scintillation'
p37
g6
sS'bandpass'
p38
g11
sS'dataSingleBeam'
p39
g11
s.