(dp1
S'dataInterferometric'
p2
S'NOTVALID'
p3
sS'multiSite'
p4
g3
sS'multicomp'
p5
S'UNKNOWN'
p6
sS'lowAltitude'
p7
g6
sS'scattering'
p8
g6
sS'spectralIndex'
p9
g6
sS'obsLog'
p10
g6
sS'flux'
p11
S'POSITIVE'
p12
sS'broadband'
p13
g6
sS'multiBeam'
p14
g12
sS'sysNoise'
p15
g6
sS'polarization'
p16
g3
sS'pulsewidth'
p17
g12
sS'TAB'
p18
g3
sS'electronics'
p19
g6
sS'dispersionRelation'
p20
g6
sS'snrDMfrac'
p21
g12
sS'compDMfrac'
p22
g3
sS'interferometric'
p23
g3
sS'gain'
p24
g6
sS'dataVoltages'
p25
g3
sS'dataMultiBeam'
p26
S'CRITICAL'
p27
sS'dmSpace'
p28
g6
sS'lowSNRsearch'
p29
g6
sS'dataMultiSite'
p30
g3
sS'highResStruct'
p31
g6
sS'SNR'
p32
g12
sS'correctFeed'
p33
g6
sS'dataTAB'
p34
g3
sS'repeats'
p35
g6
sS'scintillation'
p36
g6
sS'bandpass'
p37
g6
sS'dataSingleBeam'
p38
g3
s.